target datalayout = "e-m:e-p270:32:32-p271:32:32-p272:64:64-i64:64-i128:128-f80:128-n8:16:32:64-S128"
target triple = "x86_64-pc-linux-gnu"

%struct._GList = type { ptr, ptr, ptr }

@.str.42 = private unnamed_addr constant [16 x i8] c"discard history\00", align 1

; Function Attrs: nounwind uwtable
define void @dt_control_discard_history(ptr noundef %0) #0 {
  %2 = alloca ptr, align 8
  store ptr %0, ptr %2, align 8, !tbaa !60
  %3 = load ptr, ptr %2, align 8, !tbaa !60
  %4 = icmp ne ptr %3, null
  br i1 %4, label %5, label %18

5:                                                ; preds = %1
  %6 = load ptr, ptr %2, align 8, !tbaa !60
  %7 = getelementptr inbounds nuw %struct._GList, ptr %6, i32 0, i32 1
  %8 = load ptr, ptr %7, align 8, !tbaa !72
  %9 = icmp ne ptr %8, null
  br i1 %9, label %18, label %10

10:                                               ; preds = %5
  %11 = load ptr, ptr %2, align 8, !tbaa !60
  %12 = getelementptr inbounds nuw %struct._GList, ptr %11, i32 0, i32 0
  %13 = load ptr, ptr %12, align 8, !tbaa !70
  %14 = ptrtoint ptr %13 to i64
  %15 = trunc i64 %14 to i32
  %16 = call i32 @dt_history_delete(i32 noundef %15, i32 noundef 1)
  %17 = load ptr, ptr %2, align 8, !tbaa !60
  call void @g_list_free(ptr noundef %17)
  br label %20

18:                                               ; preds = %5, %1
  %19 = load ptr, ptr %2, align 8, !tbaa !60
  call void @_add_history_job(ptr noundef %19, ptr noundef @.str.42, ptr noundef @_control_discard_history_job_run, ptr noundef null)
  br label %20

20:                                               ; preds = %18, %10
  ret void
}