; Function Attrs: nounwind uwtable
define void @dt_control_discard_history(ptr noundef %0) local_unnamed_addr #0 {
  %.not = icmp eq ptr %0, null
  br i1 %.not, label %.split, label %2

2:                                                ; preds = %1
  %3 = getelementptr inbounds nuw i8, ptr %0, i64 8
  %4 = load ptr, ptr %3, align 8, !tbaa !63
  %.not6 = icmp eq ptr %4, null
  br i1 %.not6, label %5, label %.split5

.split5:                                          ; preds = %2
  tail call fastcc void @_add_history_job(ptr noundef nonnull %0, ptr noundef nonnull @.str.42, ptr noundef nonnull @_control_discard_history_job_run, ptr noundef null)
  br label %.split

5:                                                ; preds = %2
  %6 = load ptr, ptr %0, align 8, !tbaa !61
  %7 = ptrtoint ptr %6 to i64
  %8 = trunc i64 %7 to i32
  %9 = tail call i32 @dt_history_delete(i32 noundef %8, i32 noundef 1) #17
  tail call void @g_list_free(ptr noundef nonnull %0) #17
  br label %.split

.split:                                           ; preds = %1, %.split5, %5
  ret void
}